target datalayout = "e-m:e-p270:32:32-p271:32:32-p272:64:64-i64:64-i128:128-f80:128-n8:16:32:64-S128"
target triple = "x86_64-pc-linux-gnu"

%"class.cv::detail::DisjointSets" = type { %"class.std::vector", %"class.std::vector", %"class.std::vector" }
%"class.std::vector" = type { %"struct.std::_Vector_base" }
%"struct.std::_Vector_base" = type { %"struct.std::_Vector_base<int, std::allocator<int>>::_Vector_impl" }
%"struct.std::_Vector_base<int, std::allocator<int>>::_Vector_impl" = type { %"struct.std::_Vector_base<int, std::allocator<int>>::_Vector_impl_data" }
%"struct.std::_Vector_base<int, std::allocator<int>>::_Vector_impl_data" = type { ptr, ptr, ptr }

; Function Attrs: mustprogress nounwind uwtable
define linkonce_odr hidden noundef nonnull align 4 dereferenceable(4) ptr @_ZNSt6vectorIiSaIiEEixEm(ptr noundef nonnull align 8 dereferenceable(24) %0, i64 noundef %1) #6 comdat align 2 {
  %3 = alloca ptr, align 8
  %4 = alloca i64, align 8
  store ptr %0, ptr %3, align 8, !tbaa !12
  store i64 %1, ptr %4, align 8, !tbaa !14
  %5 = load ptr, ptr %3, align 8
  %6 = getelementptr inbounds nuw %"struct.std::_Vector_base", ptr %5, i32 0, i32 0
  %7 = getelementptr inbounds nuw %"struct.std::_Vector_base<int, std::allocator<int>>::_Vector_impl_data", ptr %6, i32 0, i32 0
  %8 = load ptr, ptr %7, align 8, !tbaa !18
  %9 = load i64, ptr %4, align 8, !tbaa !14
  %10 = getelementptr inbounds nuw i32, ptr %8, i64 %9
  ret ptr %10
}

; Function Attrs: mustprogress nounwind uwtable
define noundef i32 @_ZN2cv6detail12DisjointSets9mergeSetsEii(ptr noundef nonnull align 8 dereferenceable(72) %0, i32 noundef %1, i32 noundef %2) #6 align 2 {
  %4 = alloca i32, align 4
  %5 = alloca ptr, align 8
  %6 = alloca i32, align 4
  %7 = alloca i32, align 4
  store ptr %0, ptr %5, align 8, !tbaa !3
  store i32 %1, ptr %6, align 4, !tbaa !8
  store i32 %2, ptr %7, align 4, !tbaa !8
  %8 = load ptr, ptr %5, align 8
  %9 = getelementptr inbounds nuw %"class.cv::detail::DisjointSets", ptr %8, i32 0, i32 2
  %10 = load i32, ptr %6, align 4, !tbaa !8
  %11 = sext i32 %10 to i64
  %12 = call noundef nonnull align 4 dereferenceable(4) ptr @_ZNSt6vectorIiSaIiEEixEm(ptr noundef nonnull align 8 dereferenceable(24) %9, i64 noundef %11) #3
  %13 = load i32, ptr %12, align 4, !tbaa !8
  %14 = getelementptr inbounds nuw %"class.cv::detail::DisjointSets", ptr %8, i32 0, i32 2
  %15 = load i32, ptr %7, align 4, !tbaa !8
  %16 = sext i32 %15 to i64
  %17 = call noundef nonnull align 4 dereferenceable(4) ptr @_ZNSt6vectorIiSaIiEEixEm(ptr noundef nonnull align 8 dereferenceable(24) %14, i64 noundef %16) #3
  %18 = load i32, ptr %17, align 4, !tbaa !8
  %19 = icmp slt i32 %13, %18
  br i1 %19, label %20, label %38

20:                                               ; preds = %3
  %21 = load i32, ptr %7, align 4, !tbaa !8
  %22 = getelementptr inbounds nuw %"class.cv::detail::DisjointSets", ptr %8, i32 0, i32 0
  %23 = load i32, ptr %6, align 4, !tbaa !8
  %24 = sext i32 %23 to i64
  %25 = call noundef nonnull align 4 dereferenceable(4) ptr @_ZNSt6vectorIiSaIiEEixEm(ptr noundef nonnull align 8 dereferenceable(24) %22, i64 noundef %24) #3
  store i32 %21, ptr %25, align 4, !tbaa !8
  %26 = getelementptr inbounds nuw %"class.cv::detail::DisjointSets", ptr %8, i32 0, i32 1
  %27 = load i32, ptr %6, align 4, !tbaa !8
  %28 = sext i32 %27 to i64
  %29 = call noundef nonnull align 4 dereferenceable(4) ptr @_ZNSt6vectorIiSaIiEEixEm(ptr noundef nonnull align 8 dereferenceable(24) %26, i64 noundef %28) #3
  %30 = load i32, ptr %29, align 4, !tbaa !8
  %31 = getelementptr inbounds nuw %"class.cv::detail::DisjointSets", ptr %8, i32 0, i32 1
  %32 = load i32, ptr %7, align 4, !tbaa !8
  %33 = sext i32 %32 to i64
  %34 = call noundef nonnull align 4 dereferenceable(4) ptr @_ZNSt6vectorIiSaIiEEixEm(ptr noundef nonnull align 8 dereferenceable(24) %31, i64 noundef %33) #3
  %35 = load i32, ptr %34, align 4, !tbaa !8
  %36 = add nsw i32 %35, %30
  store i32 %36, ptr %34, align 4, !tbaa !8
  %37 = load i32, ptr %7, align 4, !tbaa !8
  store i32 %37, ptr %4, align 4
  br label %92

38:                                               ; preds = %3
  %39 = getelementptr inbounds nuw %"class.cv::detail::DisjointSets", ptr %8, i32 0, i32 2
  %40 = load i32, ptr %7, align 4, !tbaa !8
  %41 = sext i32 %40 to i64
  %42 = call noundef nonnull align 4 dereferenceable(4) ptr @_ZNSt6vectorIiSaIiEEixEm(ptr noundef nonnull align 8 dereferenceable(24) %39, i64 noundef %41) #3
  %43 = load i32, ptr %42, align 4, !tbaa !8
  %44 = getelementptr inbounds nuw %"class.cv::detail::DisjointSets", ptr %8, i32 0, i32 2
  %45 = load i32, ptr %6, align 4, !tbaa !8
  %46 = sext i32 %45 to i64
  %47 = call noundef nonnull align 4 dereferenceable(4) ptr @_ZNSt6vectorIiSaIiEEixEm(ptr noundef nonnull align 8 dereferenceable(24) %44, i64 noundef %46) #3
  %48 = load i32, ptr %47, align 4, !tbaa !8
  %49 = icmp slt i32 %43, %48
  br i1 %49, label %50, label %68

50:                                               ; preds = %38
  %51 = load i32, ptr %6, align 4, !tbaa !8
  %52 = getelementptr inbounds nuw %"class.cv::detail::DisjointSets", ptr %8, i32 0, i32 0
  %53 = load i32, ptr %7, align 4, !tbaa !8
  %54 = sext i32 %53 to i64
  %55 = call noundef nonnull align 4 dereferenceable(4) ptr @_ZNSt6vectorIiSaIiEEixEm(ptr noundef nonnull align 8 dereferenceable(24) %52, i64 noundef %54) #3
  store i32 %51, ptr %55, align 4, !tbaa !8
  %56 = getelementptr inbounds nuw %"class.cv::detail::DisjointSets", ptr %8, i32 0, i32 1
  %57 = load i32, ptr %7, align 4, !tbaa !8
  %58 = sext i32 %57 to i64
  %59 = call noundef nonnull align 4 dereferenceable(4) ptr @_ZNSt6vectorIiSaIiEEixEm(ptr noundef nonnull align 8 dereferenceable(24) %56, i64 noundef %58) #3
  %60 = load i32, ptr %59, align 4, !tbaa !8
  %61 = getelementptr inbounds nuw %"class.cv::detail::DisjointSets", ptr %8, i32 0, i32 1
  %62 = load i32, ptr %6, align 4, !tbaa !8
  %63 = sext i32 %62 to i64
  %64 = call noundef nonnull align 4 dereferenceable(4) ptr @_ZNSt6vectorIiSaIiEEixEm(ptr noundef nonnull align 8 dereferenceable(24) %61, i64 noundef %63) #3
  %65 = load i32, ptr %64, align 4, !tbaa !8
  %66 = add nsw i32 %65, %60
  store i32 %66, ptr %64, align 4, !tbaa !8
  %67 = load i32, ptr %6, align 4, !tbaa !8
  store i32 %67, ptr %4, align 4
  br label %92

68:                                               ; preds = %38
  %69 = load i32, ptr %7, align 4, !tbaa !8
  %70 = getelementptr inbounds nuw %"class.cv::detail::DisjointSets", ptr %8, i32 0, i32 0
  %71 = load i32, ptr %6, align 4, !tbaa !8
  %72 = sext i32 %71 to i64
  %73 = call noundef nonnull align 4 dereferenceable(4) ptr @_ZNSt6vectorIiSaIiEEixEm(ptr noundef nonnull align 8 dereferenceable(24) %70, i64 noundef %72) #3
  store i32 %69, ptr %73, align 4, !tbaa !8
  %74 = getelementptr inbounds nuw %"class.cv::detail::DisjointSets", ptr %8, i32 0, i32 2
  %75 = load i32, ptr %7, align 4, !tbaa !8
  %76 = sext i32 %75 to i64
  %77 = call noundef nonnull align 4 dereferenceable(4) ptr @_ZNSt6vectorIiSaIiEEixEm(ptr noundef nonnull align 8 dereferenceable(24) %74, i64 noundef %76) #3
  %78 = load i32, ptr %77, align 4, !tbaa !8
  %79 = add nsw i32 %78, 1
  store i32 %79, ptr %77, align 4, !tbaa !8
  %80 = getelementptr inbounds nuw %"class.cv::detail::DisjointSets", ptr %8, i32 0, i32 1
  %81 = load i32, ptr %6, align 4, !tbaa !8
  %82 = sext i32 %81 to i64
  %83 = call noundef nonnull align 4 dereferenceable(4) ptr @_ZNSt6vectorIiSaIiEEixEm(ptr noundef nonnull align 8 dereferenceable(24) %80, i64 noundef %82) #3
  %84 = load i32, ptr %83, align 4, !tbaa !8
  %85 = getelementptr inbounds nuw %"class.cv::detail::DisjointSets", ptr %8, i32 0, i32 1
  %86 = load i32, ptr %7, align 4, !tbaa !8
  %87 = sext i32 %86 to i64
  %88 = call noundef nonnull align 4 dereferenceable(4) ptr @_ZNSt6vectorIiSaIiEEixEm(ptr noundef nonnull align 8 dereferenceable(24) %85, i64 noundef %87) #3
  %89 = load i32, ptr %88, align 4, !tbaa !8
  %90 = add nsw i32 %89, %84
  store i32 %90, ptr %88, align 4, !tbaa !8
  %91 = load i32, ptr %7, align 4, !tbaa !8
  store i32 %91, ptr %4, align 4
  br label %92

92:                                               ; preds = %68, %50, %20
  %93 = load i32, ptr %4, align 4
  ret i32 %93
}