; Function Attrs: mustprogress nofree norecurse nosync nounwind willreturn memory(readwrite, inaccessiblemem: none) uwtable
define noundef i32 @_ZN2cv6detail12DisjointSets9mergeSetsEii(ptr noundef nonnull readonly align 8 captures(none) dereferenceable(72) %0, i32 noundef %1, i32 noundef %2) local_unnamed_addr #6 align 2 {
  %4 = getelementptr inbounds nuw i8, ptr %0, i64 48
  %5 = sext i32 %1 to i64
  %6 = load ptr, ptr %4, align 8, !tbaa !11
  %7 = getelementptr inbounds nuw i32, ptr %6, i64 %5
  %8 = load i32, ptr %7, align 4, !tbaa !3
  %9 = sext i32 %2 to i64
  %10 = getelementptr inbounds nuw i32, ptr %6, i64 %9
  %11 = load i32, ptr %10, align 4, !tbaa !3
  %12 = icmp slt i32 %8, %11
  br i1 %12, label %13, label %16

13:                                               ; preds = %3
  %14 = load ptr, ptr %0, align 8, !tbaa !11
  %15 = getelementptr inbounds nuw i32, ptr %14, i64 %5
  store i32 %2, ptr %15, align 4, !tbaa !3
  br label %25

16:                                               ; preds = %3
  %17 = icmp slt i32 %11, %8
  %18 = load ptr, ptr %0, align 8, !tbaa !11
  br i1 %17, label %19, label %21

19:                                               ; preds = %16
  %20 = getelementptr inbounds nuw i32, ptr %18, i64 %9
  store i32 %1, ptr %20, align 4, !tbaa !3
  br label %25

21:                                               ; preds = %16
  %22 = getelementptr inbounds nuw i32, ptr %18, i64 %5
  store i32 %2, ptr %22, align 4, !tbaa !3
  %23 = load i32, ptr %10, align 4, !tbaa !3
  %24 = add nsw i32 %23, 1
  store i32 %24, ptr %10, align 4, !tbaa !3
  br label %25

25:                                               ; preds = %21, %19, %13
  %.sink27 = phi i64 [ %5, %21 ], [ %9, %19 ], [ %5, %13 ]
  %.sink25 = phi i64 [ %9, %21 ], [ %5, %19 ], [ %9, %13 ]
  %.0 = phi i32 [ %2, %21 ], [ %1, %19 ], [ %2, %13 ]
  %26 = getelementptr inbounds nuw i8, ptr %0, i64 24
  %27 = load ptr, ptr %26, align 8, !tbaa !11
  %28 = getelementptr inbounds nuw i32, ptr %27, i64 %.sink27
  %29 = load i32, ptr %28, align 4, !tbaa !3
  %30 = getelementptr inbounds nuw i32, ptr %27, i64 %.sink25
  %31 = load i32, ptr %30, align 4, !tbaa !3
  %32 = add nsw i32 %31, %29
  store i32 %32, ptr %30, align 4, !tbaa !3
  ret i32 %.0
}